; Function Attrs: mustprogress nounwind uwtable
define void @_ZN5boost11this_thread20disable_interruptionC2Ev(ptr nocapture noundef nonnull writeonly align 1 dereferenceable(1) %0) unnamed_addr #5 align 2 personality ptr @__gxx_personality_v0 {
  %2 = tail call noundef zeroext i1 @_ZN5boost13thread_detail17enter_once_regionERNS_9once_flagE(ptr noundef nonnull align 4 dereferenceable(4) @_ZN5boost6detail12_GLOBAL__N_128current_thread_tls_init_flagE) #32
  br i1 %2, label %_ZN5boost6detail6invokeIPFvvEJEEEDTclclsr5boostE7forwardIT_Efp_Espclsr5boostE7forwardIT0_Efp0_EEEOS4_DpOS5_.exit.i.i.i, label %4

_ZN5boost6detail6invokeIPFvvEJEEEDTclclsr5boostE7forwardIT_Efp_Espclsr5boostE7forwardIT0_Efp0_EEEOS4_DpOS5_.exit.i.i.i: ; preds = %1
  %3 = tail call i32 @pthread_key_create(ptr noundef nonnull @_ZN5boost6detail12_GLOBAL__N_122current_thread_tls_keyE, ptr noundef nonnull @_ZN5boost6detail12_GLOBAL__N_114tls_destructorEPv) #32
  tail call void @_ZN5boost13thread_detail18commit_once_regionERNS_9once_flagE(ptr noundef nonnull align 4 dereferenceable(4) @_ZN5boost6detail12_GLOBAL__N_128current_thread_tls_init_flagE) #32
  br label %4

4:                                                ; preds = %_ZN5boost6detail6invokeIPFvvEJEEEDTclclsr5boostE7forwardIT_Efp_Espclsr5boostE7forwardIT0_Efp0_EEEOS4_DpOS5_.exit.i.i.i, %1
  %5 = load i32, ptr @_ZN5boost6detail12_GLOBAL__N_122current_thread_tls_keyE, align 4, !tbaa !54
  %6 = tail call noundef ptr @pthread_getspecific(i32 noundef %5) #32
  %.not.i = icmp eq ptr %6, null
  br i1 %.not.i, label %_ZN5boost11this_thread20interruption_enabledEv.exit.thread, label %_ZN5boost11this_thread20interruption_enabledEv.exit

_ZN5boost11this_thread20interruption_enabledEv.exit.thread: ; preds = %4
  store i8 0, ptr %0, align 1, !tbaa !155
  br label %17

_ZN5boost11this_thread20interruption_enabledEv.exit: ; preds = %4
  %7 = getelementptr inbounds nuw i8, ptr %6, i64 304
  %8 = load i8, ptr %7, align 8, !tbaa !56, !range !51, !noundef !52
  %9 = trunc nuw i8 %8 to i1
  store i8 %8, ptr %0, align 1, !tbaa !155
  br i1 %9, label %10, label %17

10:                                               ; preds = %_ZN5boost11this_thread20interruption_enabledEv.exit
  %11 = tail call noundef zeroext i1 @_ZN5boost13thread_detail17enter_once_regionERNS_9once_flagE(ptr noundef nonnull align 4 dereferenceable(4) @_ZN5boost6detail12_GLOBAL__N_128current_thread_tls_init_flagE) #32
  br i1 %11, label %_ZN5boost6detail6invokeIPFvvEJEEEDTclclsr5boostE7forwardIT_Efp_Espclsr5boostE7forwardIT0_Efp0_EEEOS4_DpOS5_.exit.i.i, label %13

_ZN5boost6detail6invokeIPFvvEJEEEDTclclsr5boostE7forwardIT_Efp_Espclsr5boostE7forwardIT0_Efp0_EEEOS4_DpOS5_.exit.i.i: ; preds = %10
  %12 = tail call i32 @pthread_key_create(ptr noundef nonnull @_ZN5boost6detail12_GLOBAL__N_122current_thread_tls_keyE, ptr noundef nonnull @_ZN5boost6detail12_GLOBAL__N_114tls_destructorEPv) #32
  tail call void @_ZN5boost13thread_detail18commit_once_regionERNS_9once_flagE(ptr noundef nonnull align 4 dereferenceable(4) @_ZN5boost6detail12_GLOBAL__N_128current_thread_tls_init_flagE) #32
  br label %13

13:                                               ; preds = %_ZN5boost6detail6invokeIPFvvEJEEEDTclclsr5boostE7forwardIT_Efp_Espclsr5boostE7forwardIT0_Efp0_EEEOS4_DpOS5_.exit.i.i, %10
  %14 = load i32, ptr @_ZN5boost6detail12_GLOBAL__N_122current_thread_tls_keyE, align 4, !tbaa !54
  %15 = tail call noundef ptr @pthread_getspecific(i32 noundef %14) #32
  %16 = getelementptr inbounds nuw i8, ptr %15, i64 304
  store i8 0, ptr %16, align 8, !tbaa !56
  br label %17

17:                                               ; preds = %_ZN5boost11this_thread20interruption_enabledEv.exit.thread, %13, %_ZN5boost11this_thread20interruption_enabledEv.exit
  ret void
}